; Function Attrs: mustprogress uwtable
define dso_local void @_ZN8Function21OutputFormalParamListERSo(ptr noundef nonnull readonly align 8 captures(none) dereferenceable(424) %0, ptr noundef nonnull align 8 dereferenceable(8) %1) local_unnamed_addr #4 align 2 {
  %3 = getelementptr inbounds nuw i8, ptr %0, i64 32
  %4 = getelementptr inbounds nuw i8, ptr %0, i64 40
  %5 = load ptr, ptr %4, align 8
  %6 = load ptr, ptr %3, align 8
  %7 = icmp eq ptr %5, %6
  br i1 %7, label %8, label %10

8:                                                ; preds = %2
  %9 = load ptr, ptr @_ZN4Type9void_typeE, align 8
  tail call void @_ZNK4Type6OutputERSo(ptr noundef nonnull align 8 dereferenceable(136) %9, ptr noundef nonnull align 8 dereferenceable(8) %1)
  br label %_ZSt8for_eachIN9__gnu_cxx17__normal_iteratorIPP8VariableSt6vectorIS3_SaIS3_EEEESt9binder2ndISt26pointer_to_binary_functionIS3_PSoiEEET0_T_SF_SE_.exit

10:                                               ; preds = %2
  store i1 false, ptr @_ZL11param_first, align 1
  br label %.lr.ph.i

.lr.ph.ithread-pre-split:                         ; preds = %_ZL17OutputFormalParamP8VariablePSo.exit
  %.b.i.pr = load i1, ptr @_ZL11param_first, align 1
  br label %.lr.ph.i

.lr.ph.i:                                         ; preds = %.lr.ph.ithread-pre-split, %10
  %.b.i = phi i1 [ %.b.i.pr, %.lr.ph.ithread-pre-split ], [ false, %10 ]
  %.sroa.02.06.i = phi ptr [ %22, %.lr.ph.ithread-pre-split ], [ %6, %10 ]
  %11 = load ptr, ptr %.sroa.02.06.i, align 8
  br i1 %.b.i, label %12, label %_ZL17OutputFormalParamP8VariablePSo.exit

12:                                               ; preds = %.lr.ph.i
  %13 = tail call noundef nonnull align 8 dereferenceable(8) ptr @_ZStlsISt11char_traitsIcEERSt13basic_ostreamIcT_ES5_PKc(ptr noundef nonnull align 8 dereferenceable(8) %1, ptr noundef nonnull @.str.90)
  br label %_ZL17OutputFormalParamP8VariablePSo.exit

_ZL17OutputFormalParamP8VariablePSo.exit:         ; preds = %.lr.ph.i, %12
  store i1 true, ptr @_ZL11param_first, align 1
  %14 = tail call noundef zeroext i1 @_ZN9CGOptions11arg_structsEv()
  %15 = tail call noundef zeroext i1 @_ZN9CGOptions10arg_unionsEv()
  %16 = load ptr, ptr %11, align 8
  %17 = getelementptr inbounds nuw i8, ptr %16, i64 112
  %18 = load ptr, ptr %17, align 8
  tail call void %18(ptr noundef nonnull align 8 dereferenceable(200) %11, ptr noundef nonnull align 8 dereferenceable(8) %1)
  %19 = tail call noundef nonnull align 8 dereferenceable(8) ptr @_ZStlsISt11char_traitsIcEERSt13basic_ostreamIcT_ES5_PKc(ptr noundef nonnull align 8 dereferenceable(8) %1, ptr noundef nonnull @.str.53)
  %20 = getelementptr inbounds nuw i8, ptr %11, i64 32
  %21 = tail call noundef nonnull align 8 dereferenceable(8) ptr @_ZStlsIcSt11char_traitsIcESaIcEERSt13basic_ostreamIT_T0_ES7_RKNSt7__cxx1112basic_stringIS4_S5_T1_EE(ptr noundef nonnull align 8 dereferenceable(8) %19, ptr noundef nonnull align 8 dereferenceable(32) %20)
  %22 = getelementptr inbounds nuw i8, ptr %.sroa.02.06.i, i64 8
  %.not.i = icmp eq ptr %22, %5
  br i1 %.not.i, label %_ZSt8for_eachIN9__gnu_cxx17__normal_iteratorIPP8VariableSt6vectorIS3_SaIS3_EEEESt9binder2ndISt26pointer_to_binary_functionIS3_PSoiEEET0_T_SF_SE_.exit, label %.lr.ph.ithread-pre-split, !llvm.loop !28

_ZSt8for_eachIN9__gnu_cxx17__normal_iteratorIPP8VariableSt6vectorIS3_SaIS3_EEEESt9binder2ndISt26pointer_to_binary_functionIS3_PSoiEEET0_T_SF_SE_.exit: ; preds = %_ZL17OutputFormalParamP8VariablePSo.exit, %8
  ret void
}